target datalayout = "e-m:e-p270:32:32-p271:32:32-p272:64:64-i64:64-i128:128-f80:128-n8:16:32:64-S128"
target triple = "x86_64-pc-linux-gnu"

%struct.KEYMAP_ENTRY = type { i32, i64, i8, i32 }

; Function Attrs: nounwind uwtable
define hidden i64 @awt_getX11KeySym(i32 noundef %0) #0 {
  %2 = alloca i64, align 8
  %3 = alloca i32, align 4
  %4 = alloca i32, align 4
  store i32 %0, ptr %3, align 4
  %5 = load i32, ptr %3, align 4
  %6 = sext i32 %5 to i64
  %7 = icmp eq i64 %6, 262
  br i1 %7, label %8, label %13

8:                                                ; preds = %1
  %9 = call signext i8 @keyboardHasKanaLockKey()
  %10 = sext i8 %9 to i32
  %11 = icmp ne i32 %10, 0
  br i1 %11, label %12, label %13

12:                                               ; preds = %8
  store i64 65406, ptr %2, align 8
  br label %40

13:                                               ; preds = %8, %1
  store i32 0, ptr %4, align 4
  br label %14

14:                                               ; preds = %36, %13
  %15 = load i32, ptr %4, align 4
  %16 = sext i32 %15 to i64
  %17 = getelementptr inbounds [264 x %struct.KEYMAP_ENTRY], ptr @keymapTable, i64 0, i64 %16
  %18 = getelementptr inbounds %struct.KEYMAP_ENTRY, ptr %17, i32 0, i32 0
  %19 = load i32, ptr %18, align 8
  %20 = icmp ne i32 %19, 0
  br i1 %20, label %21, label %39

21:                                               ; preds = %14
  %22 = load i32, ptr %4, align 4
  %23 = sext i32 %22 to i64
  %24 = getelementptr inbounds [264 x %struct.KEYMAP_ENTRY], ptr @keymapTable, i64 0, i64 %23
  %25 = getelementptr inbounds %struct.KEYMAP_ENTRY, ptr %24, i32 0, i32 0
  %26 = load i32, ptr %25, align 8
  %27 = load i32, ptr %3, align 4
  %28 = icmp eq i32 %26, %27
  br i1 %28, label %29, label %35

29:                                               ; preds = %21
  %30 = load i32, ptr %4, align 4
  %31 = sext i32 %30 to i64
  %32 = getelementptr inbounds [264 x %struct.KEYMAP_ENTRY], ptr @keymapTable, i64 0, i64 %31
  %33 = getelementptr inbounds %struct.KEYMAP_ENTRY, ptr %32, i32 0, i32 1
  %34 = load i64, ptr %33, align 8
  store i64 %34, ptr %2, align 8
  br label %40

35:                                               ; preds = %21
  br label %36

36:                                               ; preds = %35
  %37 = load i32, ptr %4, align 4
  %38 = add nsw i32 %37, 1
  store i32 %38, ptr %4, align 4
  br label %14, !llvm.loop !6

39:                                               ; preds = %14
  store i64 0, ptr %2, align 8
  br label %40

40:                                               ; preds = %39, %29, %12
  %41 = load i64, ptr %2, align 8
  ret i64 %41
}