; Function Attrs: nounwind uwtable
define hidden i64 @awt_getX11KeySym(i32 noundef %0) local_unnamed_addr #0 {
  %2 = icmp eq i32 %0, 262
  br i1 %2, label %3, label %5

3:                                                ; preds = %1
  %4 = tail call fastcc signext i8 @keyboardHasKanaLockKey()
  %.not = icmp eq i8 %4, 0
  br i1 %.not, label %5, label %.loopexit

5:                                                ; preds = %3, %1
  %6 = load i32, ptr @keymapTable, align 16
  %.not911 = icmp eq i32 %6, 0
  br i1 %.not911, label %.loopexit, label %.lr.ph.preheader

.lr.ph.preheader:                                 ; preds = %5
  %7 = icmp eq i32 %6, %0
  br i1 %7, label %.lr.ph._crit_edge, label %.lr.ph18

.lr.ph18:                                         ; preds = %.lr.ph.preheader, %.lr.ph
  %indvars.iv17 = phi i64 [ %indvars.iv.next, %.lr.ph ], [ 0, %.lr.ph.preheader ]
  %indvars.iv.next = add nuw nsw i64 %indvars.iv17, 1
  %8 = getelementptr inbounds [264 x %struct.KEYMAP_ENTRY], ptr @keymapTable, i64 0, i64 %indvars.iv.next
  %9 = load i32, ptr %8, align 8
  %.not9 = icmp eq i32 %9, 0
  br i1 %.not9, label %.loopexit, label %.lr.ph, !llvm.loop !6

.lr.ph:                                           ; preds = %.lr.ph18
  %10 = icmp eq i32 %9, %0
  br i1 %10, label %.lr.ph._crit_edge, label %.lr.ph18, !llvm.loop !6

.lr.ph._crit_edge:                                ; preds = %.lr.ph, %.lr.ph.preheader
  %.lcssa = phi ptr [ @keymapTable, %.lr.ph.preheader ], [ %8, %.lr.ph ]
  %11 = getelementptr inbounds i8, ptr %.lcssa, i64 8
  %12 = load i64, ptr %11, align 8
  br label %.loopexit

.loopexit:                                        ; preds = %.lr.ph18, %5, %3, %.lr.ph._crit_edge
  %.07 = phi i64 [ %12, %.lr.ph._crit_edge ], [ 65406, %3 ], [ 0, %5 ], [ 0, %.lr.ph18 ]
  ret i64 %.07
}